; Function Attrs: nounwind uwtable
define internal fastcc range(i32 0, 2003) i32 @_shutdown(ptr noundef %0, ptr noundef writeonly captures(none) initializes((0, 8)) %1) unnamed_addr #0 {
  %3 = load ptr, ptr %0, align 8
  %4 = getelementptr inbounds nuw i8, ptr %3, i64 8
  %5 = load i32, ptr %4, align 8
  %6 = icmp eq i32 %5, 0
  %7 = load i32, ptr getelementptr inbounds nuw (i8, ptr @slurm_conf, i64 1152), align 8
  %8 = icmp eq i32 %5, %7
  %or.cond.i = select i1 %6, i1 true, i1 %8
  br i1 %or.cond.i, label %_validate_super_user.exit.thread, label %_validate_super_user.exit

_validate_super_user.exit:                        ; preds = %2
  %9 = tail call i32 @assoc_mgr_get_admin_level(ptr noundef nonnull %0, i32 noundef %5) #10
  %10 = icmp ugt i32 %9, 2
  br i1 %10, label %_validate_super_user.exit.thread, label %11

11:                                               ; preds = %_validate_super_user.exit
  %12 = load ptr, ptr %0, align 8
  %13 = getelementptr inbounds nuw i8, ptr %12, i64 60
  %14 = load i32, ptr %13, align 4
  %15 = tail call i32 (ptr, ...) @error(ptr noundef nonnull @.str.16, i32 noundef %14, ptr noundef nonnull @.str.21) #10
  %16 = load ptr, ptr %0, align 8
  %17 = tail call ptr @slurm_persist_make_rc_msg(ptr noundef %16, i32 noundef 2002, ptr noundef nonnull @.str.21, i16 noundef zeroext 1492) #10
  br label %27

_validate_super_user.exit.thread:                 ; preds = %2, %_validate_super_user.exit
  %18 = tail call i32 @get_log_level() #10
  %19 = icmp sgt i32 %18, 2
  br i1 %19, label %20, label %24

20:                                               ; preds = %_validate_super_user.exit.thread
  %21 = load ptr, ptr %0, align 8
  %22 = getelementptr inbounds nuw i8, ptr %21, i64 8
  %23 = load i32, ptr %22, align 8
  tail call void (i32, ptr, ...) @log_var(i32 noundef 3, ptr noundef nonnull @.str.151, i32 noundef %23) #10
  br label %24

24:                                               ; preds = %20, %_validate_super_user.exit.thread
  tail call void @shutdown_threads() #10
  %25 = load ptr, ptr %0, align 8
  %26 = tail call ptr @slurm_persist_make_rc_msg(ptr noundef %25, i32 noundef 0, ptr noundef null, i16 noundef zeroext 1492) #10
  br label %27

27:                                               ; preds = %24, %11
  %storemerge = phi ptr [ %17, %11 ], [ %26, %24 ]
  %.0 = phi i32 [ 2002, %11 ], [ 0, %24 ]
  store ptr %storemerge, ptr %1, align 8
  ret i32 %.0
}